target datalayout = "e-m:e-p270:32:32-p271:32:32-p272:64:64-i64:64-i128:128-f80:128-n8:16:32:64-S128"
target triple = "x86_64-pc-linux-gnu"

%class.btVector3 = type { [4 x float] }
%struct.btIntermediateResult = type <{ %"struct.btDiscreteCollisionDetectorInterface::Result", %class.btVector3, %class.btVector3, float, i8, [3 x i8] }>
%"struct.btDiscreteCollisionDetectorInterface::Result" = type { ptr }

; Function Attrs: mustprogress nounwind uwtable
define internal void @_ZZN33btMinkowskiPenetrationDepthSolver12calcPenDepthER22btVoronoiSimplexSolverPK13btConvexShapeS4_RK11btTransformS7_R9btVector3S9_S9_P12btIDebugDrawEN20btIntermediateResult15addContactPointERKS8_SE_f(ptr noundef nonnull align 8 dereferenceable(45) %0, ptr noundef nonnull align 4 dereferenceable(16) %1, ptr noundef nonnull align 4 dereferenceable(16) %2, float noundef %3) unnamed_addr #1 align 2 {
  %5 = alloca ptr, align 8
  %6 = alloca ptr, align 8
  %7 = alloca ptr, align 8
  %8 = alloca float, align 4
  store ptr %0, ptr %5, align 8, !tbaa !56
  store ptr %1, ptr %6, align 8, !tbaa !20
  store ptr %2, ptr %7, align 8, !tbaa !20
  store float %3, ptr %8, align 4, !tbaa !26
  %9 = load ptr, ptr %5, align 8
  %10 = load ptr, ptr %6, align 8, !tbaa !20
  %11 = getelementptr inbounds nuw %struct.btIntermediateResult, ptr %9, i32 0, i32 1
  call void @llvm.memcpy.p0.p0.i64(ptr align 8 %11, ptr align 4 %10, i64 16, i1 false), !tbaa.struct !28
  %12 = load ptr, ptr %7, align 8, !tbaa !20
  %13 = getelementptr inbounds nuw %struct.btIntermediateResult, ptr %9, i32 0, i32 2
  call void @llvm.memcpy.p0.p0.i64(ptr align 8 %13, ptr align 4 %12, i64 16, i1 false), !tbaa.struct !28
  %14 = load float, ptr %8, align 4, !tbaa !26
  %15 = getelementptr inbounds nuw %struct.btIntermediateResult, ptr %9, i32 0, i32 3
  store float %14, ptr %15, align 8, !tbaa !43
  %16 = getelementptr inbounds nuw %struct.btIntermediateResult, ptr %9, i32 0, i32 4
  store i8 1, ptr %16, align 4, !tbaa !46
  ret void
}