; Function Attrs: mustprogress nofree norecurse nosync nounwind willreturn memory(argmem: readwrite) uwtable
define internal void @_ZZN33btMinkowskiPenetrationDepthSolver12calcPenDepthER22btVoronoiSimplexSolverPK13btConvexShapeS4_RK11btTransformS7_R9btVector3S9_S9_P12btIDebugDrawEN20btIntermediateResult15addContactPointERKS8_SE_f(ptr noundef nonnull writeonly align 8 captures(none) dereferenceable(45) initializes((8, 45)) %0, ptr noundef nonnull readonly align 4 captures(none) dereferenceable(16) %1, ptr noundef nonnull readonly align 4 captures(none) dereferenceable(16) %2, float noundef %3) unnamed_addr #10 align 2 {
  %5 = getelementptr inbounds nuw i8, ptr %0, i64 8
  tail call void @llvm.memcpy.p0.p0.i64(ptr noundef nonnull align 8 dereferenceable(16) %5, ptr noundef nonnull align 4 dereferenceable(16) %1, i64 16, i1 false), !tbaa.struct !17
  %6 = getelementptr inbounds nuw i8, ptr %0, i64 24
  tail call void @llvm.memcpy.p0.p0.i64(ptr noundef nonnull align 8 dereferenceable(16) %6, ptr noundef nonnull align 4 dereferenceable(16) %2, i64 16, i1 false), !tbaa.struct !17
  %7 = getelementptr inbounds nuw i8, ptr %0, i64 40
  store float %3, ptr %7, align 8, !tbaa !32
  %8 = getelementptr inbounds nuw i8, ptr %0, i64 44
  store i8 1, ptr %8, align 4, !tbaa !26
  ret void
}